; Function Attrs: mustprogress nofree norecurse nosync nounwind willreturn memory(read, inaccessiblemem: none) uwtable
define hidden noundef ptr @_ZN11th_rewriter21get_used_dependenciesEv(ptr nocapture noundef nonnull readonly align 8 dereferenceable(16) %this) local_unnamed_addr #4 align 2 {
entry:
  %0 = load ptr, ptr %this, align 8
  %1 = getelementptr i8, ptr %0, i64 144
  %.val = load ptr, ptr %1, align 8
  %m_used_dependencies = getelementptr inbounds i8, ptr %.val, i64 2360
  %2 = load ptr, ptr %m_used_dependencies, align 8
  ret ptr %2
}